; ModuleID = '44/735.c'
source_filename = "44/735.c"
target datalayout = "e-m:e-p270:32:32-p271:32:32-p272:64:64-i64:64-f80:128-n8:16:32:64-S128"
target triple = "x86_64-pc-linux-gnu"

@.str = private unnamed_addr constant [3 x i8] c"%d\00", align 1
@.str.1 = private unnamed_addr constant [4 x i8] c"%d\0A\00", align 1

; Function Attrs: noinline nounwind uwtable
define dso_local i32 @main() #0 {
  %1 = alloca i32, align 4
  %2 = alloca i32, align 4
  %3 = alloca i32, align 4
  %4 = alloca i32, align 4
  store i32 0, i32* %1, align 4
  store i32 1, i32* %2, align 4
  br label %5

5:                                                ; preds = %14, %0
  %6 = load i32, i32* %2, align 4
  %7 = icmp sle i32 %6, 6
  br i1 %7, label %8, label %17

8:                                                ; preds = %5
  %9 = call i32 (i8*, ...) @__isoc99_scanf(i8* getelementptr inbounds ([3 x i8], [3 x i8]* @.str, i64 0, i64 0), i32* %3)
  %10 = load i32, i32* %3, align 4
  %11 = call i32 @reverse(i32 %10)
  store i32 %11, i32* %4, align 4
  %12 = load i32, i32* %4, align 4
  %13 = call i32 (i8*, ...) @printf(i8* getelementptr inbounds ([4 x i8], [4 x i8]* @.str.1, i64 0, i64 0), i32 %12)
  br label %14

14:                                               ; preds = %8
  %15 = load i32, i32* %2, align 4
  %16 = add nsw i32 %15, 1
  store i32 %16, i32* %2, align 4
  br label %5

17:                                               ; preds = %5
  ret i32 0
}

declare dso_local i32 @__isoc99_scanf(i8*, ...) #1

; Function Attrs: noinline nounwind uwtable
define dso_local i32 @reverse(i32 %0) #0 {
  %2 = alloca i32, align 4
  %3 = alloca [10000 x i32], align 16
  %4 = alloca i32, align 4
  %5 = alloca i32, align 4
  %6 = alloca i32, align 4
  %7 = alloca i32, align 4
  store i32 %0, i32* %2, align 4
  store i32 0, i32* %4, align 4
  store i32 1, i32* %6, align 4
  store i32 0, i32* %7, align 4
  %8 = load i32, i32* %2, align 4
  %9 = icmp slt i32 %8, 0
  br i1 %9, label %10, label %51

10:                                               ; preds = %1
  %11 = load i32, i32* %2, align 4
  %12 = sub nsw i32 0, %11
  store i32 %12, i32* %2, align 4
  br label %13

13:                                               ; preds = %16, %10
  %14 = load i32, i32* %2, align 4
  %15 = icmp sgt i32 %14, 0
  br i1 %15, label %16, label %26

16:                                               ; preds = %13
  %17 = load i32, i32* %2, align 4
  %18 = srem i32 %17, 10
  %19 = load i32, i32* %4, align 4
  %20 = sext i32 %19 to i64
  %21 = getelementptr inbounds [10000 x i32], [10000 x i32]* %3, i64 0, i64 %20
  store i32 %18, i32* %21, align 4
  %22 = load i32, i32* %2, align 4
  %23 = sdiv i32 %22, 10
  store i32 %23, i32* %2, align 4
  %24 = load i32, i32* %4, align 4
  %25 = add nsw i32 %24, 1
  store i32 %25, i32* %4, align 4
  br label %13

26:                                               ; preds = %13
  store i32 0, i32* %5, align 4
  br label %27

27:                                               ; preds = %45, %26
  %28 = load i32, i32* %5, align 4
  %29 = load i32, i32* %4, align 4
  %30 = icmp slt i32 %28, %29
  br i1 %30, label %31, label %48

31:                                               ; preds = %27
  %32 = load i32, i32* %7, align 4
  %33 = load i32, i32* %4, align 4
  %34 = sub nsw i32 %33, 1
  %35 = load i32, i32* %5, align 4
  %36 = sub nsw i32 %34, %35
  %37 = sext i32 %36 to i64
  %38 = getelementptr inbounds [10000 x i32], [10000 x i32]* %3, i64 0, i64 %37
  %39 = load i32, i32* %38, align 4
  %40 = load i32, i32* %6, align 4
  %41 = mul nsw i32 %39, %40
  %42 = add nsw i32 %32, %41
  store i32 %42, i32* %7, align 4
  %43 = load i32, i32* %6, align 4
  %44 = mul nsw i32 %43, 10
  store i32 %44, i32* %6, align 4
  br label %45

45:                                               ; preds = %31
  %46 = load i32, i32* %5, align 4
  %47 = add nsw i32 %46, 1
  store i32 %47, i32* %5, align 4
  br label %27

48:                                               ; preds = %27
  %49 = load i32, i32* %7, align 4
  %50 = sub nsw i32 0, %49
  store i32 %50, i32* %2, align 4
  br label %89

51:                                               ; preds = %1
  br label %52

52:                                               ; preds = %55, %51
  %53 = load i32, i32* %2, align 4
  %54 = icmp sgt i32 %53, 0
  br i1 %54, label %55, label %65

55:                                               ; preds = %52
  %56 = load i32, i32* %2, align 4
  %57 = srem i32 %56, 10
  %58 = load i32, i32* %4, align 4
  %59 = sext i32 %58 to i64
  %60 = getelementptr inbounds [10000 x i32], [10000 x i32]* %3, i64 0, i64 %59
  store i32 %57, i32* %60, align 4
  %61 = load i32, i32* %2, align 4
  %62 = sdiv i32 %61, 10
  store i32 %62, i32* %2, align 4
  %63 = load i32, i32* %4, align 4
  %64 = add nsw i32 %63, 1
  store i32 %64, i32* %4, align 4
  br label %52

65:                                               ; preds = %52
  store i32 0, i32* %5, align 4
  br label %66

66:                                               ; preds = %84, %65
  %67 = load i32, i32* %5, align 4
  %68 = load i32, i32* %4, align 4
  %69 = icmp slt i32 %67, %68
  br i1 %69, label %70, label %87

70:                                               ; preds = %66
  %71 = load i32, i32* %7, align 4
  %72 = load i32, i32* %4, align 4
  %73 = sub nsw i32 %72, 1
  %74 = load i32, i32* %5, align 4
  %75 = sub nsw i32 %73, %74
  %76 = sext i32 %75 to i64
  %77 = getelementptr inbounds [10000 x i32], [10000 x i32]* %3, i64 0, i64 %76
  %78 = load i32, i32* %77, align 4
  %79 = load i32, i32* %6, align 4
  %80 = mul nsw i32 %78, %79
  %81 = add nsw i32 %71, %80
  store i32 %81, i32* %7, align 4
  %82 = load i32, i32* %6, align 4
  %83 = mul nsw i32 %82, 10
  store i32 %83, i32* %6, align 4
  br label %84

84:                                               ; preds = %70
  %85 = load i32, i32* %5, align 4
  %86 = add nsw i32 %85, 1
  store i32 %86, i32* %5, align 4
  br label %66

87:                                               ; preds = %66
  %88 = load i32, i32* %7, align 4
  store i32 %88, i32* %2, align 4
  br label %89

89:                                               ; preds = %87, %48
  %90 = load i32, i32* %2, align 4
  ret i32 %90
}

declare dso_local i32 @printf(i8*, ...) #1


!llvm.module.flags = !{!0}
!llvm.ident = !{!1}

!0 = !{i32 1, !"wchar_size", i32 4}
!1 = !{!"clang version 10.0.0-4ubuntu1 "}
